target datalayout = "e-m:e-p270:32:32-p271:32:32-p272:64:64-i64:64-i128:128-f80:128-n8:16:32:64-S128"
target triple = "x86_64-pc-linux-gnu"

%"class.cv::tinyxml2::StrPair" = type { i32, ptr, ptr }
%"class.cv::tinyxml2::XMLNode" = type { ptr, ptr, ptr, %"class.cv::tinyxml2::StrPair", ptr, ptr, ptr, ptr, ptr }

; Function Attrs: inlinehint mustprogress nounwind uwtable
define linkonce_odr hidden noundef zeroext i1 @_ZN2cv8tinyxml27XMLUtil11StringEqualEPKcS3_i(ptr noundef %0, ptr noundef %1, i32 noundef %2) #8 comdat align 2 {
  %4 = alloca i1, align 1
  %5 = alloca ptr, align 8
  %6 = alloca ptr, align 8
  %7 = alloca i32, align 4
  %8 = alloca i32, align 4
  %9 = alloca i32, align 4
  store ptr %0, ptr %5, align 8, !tbaa !14
  store ptr %1, ptr %6, align 8, !tbaa !14
  store i32 %2, ptr %7, align 4, !tbaa !15
  call void @llvm.lifetime.start.p0(i64 4, ptr %8) #17
  store i32 0, ptr %8, align 4, !tbaa !15
  %10 = load ptr, ptr %5, align 8, !tbaa !14
  %11 = load ptr, ptr %6, align 8, !tbaa !14
  %12 = icmp eq ptr %10, %11
  br i1 %12, label %13, label %14

13:                                               ; preds = %3
  store i1 true, ptr %4, align 1
  store i32 1, ptr %9, align 4
  br label %60

14:                                               ; preds = %3
  br label %15

15:                                               ; preds = %37, %14
  %16 = load ptr, ptr %5, align 8, !tbaa !14
  %17 = load i8, ptr %16, align 1, !tbaa !18
  %18 = icmp ne i8 %17, 0
  br i1 %18, label %19, label %35

19:                                               ; preds = %15
  %20 = load ptr, ptr %6, align 8, !tbaa !14
  %21 = load i8, ptr %20, align 1, !tbaa !18
  %22 = icmp ne i8 %21, 0
  br i1 %22, label %23, label %35

23:                                               ; preds = %19
  %24 = load ptr, ptr %5, align 8, !tbaa !14
  %25 = load i8, ptr %24, align 1, !tbaa !18
  %26 = sext i8 %25 to i32
  %27 = load ptr, ptr %6, align 8, !tbaa !14
  %28 = load i8, ptr %27, align 1, !tbaa !18
  %29 = sext i8 %28 to i32
  %30 = icmp eq i32 %26, %29
  br i1 %30, label %31, label %35

31:                                               ; preds = %23
  %32 = load i32, ptr %8, align 4, !tbaa !15
  %33 = load i32, ptr %7, align 4, !tbaa !15
  %34 = icmp slt i32 %32, %33
  br label %35

35:                                               ; preds = %31, %23, %19, %15
  %36 = phi i1 [ false, %23 ], [ false, %19 ], [ false, %15 ], [ %34, %31 ]
  br i1 %36, label %37, label %44

37:                                               ; preds = %35
  %38 = load ptr, ptr %5, align 8, !tbaa !14
  %39 = getelementptr inbounds nuw i8, ptr %38, i32 1
  store ptr %39, ptr %5, align 8, !tbaa !14
  %40 = load ptr, ptr %6, align 8, !tbaa !14
  %41 = getelementptr inbounds nuw i8, ptr %40, i32 1
  store ptr %41, ptr %6, align 8, !tbaa !14
  %42 = load i32, ptr %8, align 4, !tbaa !15
  %43 = add nsw i32 %42, 1
  store i32 %43, ptr %8, align 4, !tbaa !15
  br label %15, !llvm.loop !45

44:                                               ; preds = %35
  %45 = load i32, ptr %8, align 4, !tbaa !15
  %46 = load i32, ptr %7, align 4, !tbaa !15
  %47 = icmp eq i32 %45, %46
  br i1 %47, label %58, label %48

48:                                               ; preds = %44
  %49 = load ptr, ptr %5, align 8, !tbaa !14
  %50 = load i8, ptr %49, align 1, !tbaa !18
  %51 = sext i8 %50 to i32
  %52 = icmp eq i32 %51, 0
  br i1 %52, label %53, label %59

53:                                               ; preds = %48
  %54 = load ptr, ptr %6, align 8, !tbaa !14
  %55 = load i8, ptr %54, align 1, !tbaa !18
  %56 = sext i8 %55 to i32
  %57 = icmp eq i32 %56, 0
  br i1 %57, label %58, label %59

58:                                               ; preds = %53, %44
  store i1 true, ptr %4, align 1
  store i32 1, ptr %9, align 4
  br label %60

59:                                               ; preds = %53, %48
  store i1 false, ptr %4, align 1
  store i32 1, ptr %9, align 4
  br label %60

60:                                               ; preds = %59, %58, %13
  call void @llvm.lifetime.end.p0(i64 4, ptr %8) #17
  %61 = load i1, ptr %4, align 1
  ret i1 %61
}

; Function Attrs: mustprogress uwtable
define hidden noundef ptr @_ZNK2cv8tinyxml27XMLNode5ValueEv(ptr noundef nonnull align 8 dereferenceable(88) %0) #3 align 2 {
  %2 = alloca ptr, align 8
  store ptr %0, ptr %2, align 8, !tbaa !55
  %3 = load ptr, ptr %2, align 8
  %4 = getelementptr inbounds nuw %"class.cv::tinyxml2::XMLNode", ptr %3, i32 0, i32 3
  %5 = call noundef ptr @_ZN2cv8tinyxml27StrPair6GetStrEv(ptr noundef nonnull align 8 dereferenceable(24) %4)
  ret ptr %5
}

; Function Attrs: mustprogress uwtable
define hidden noundef zeroext i1 @_ZNK2cv8tinyxml214XMLDeclaration12ShallowEqualEPKNS0_7XMLNodeE(ptr noundef nonnull align 8 dereferenceable(88) %0, ptr noundef %1) unnamed_addr #3 align 2 {
  %3 = alloca ptr, align 8
  %4 = alloca ptr, align 8
  store ptr %0, ptr %3, align 8, !tbaa !147
  store ptr %1, ptr %4, align 8, !tbaa !55
  %5 = load ptr, ptr %3, align 8
  %6 = load ptr, ptr %4, align 8, !tbaa !55
  %7 = load ptr, ptr %6, align 8, !tbaa !92
  %8 = getelementptr inbounds ptr, ptr %7, i64 10
  %9 = load ptr, ptr %8, align 8
  %10 = call noundef ptr %9(ptr noundef nonnull align 8 dereferenceable(88) %6)
  %11 = icmp ne ptr %10, null
  br i1 %11, label %12, label %21

12:                                               ; preds = %2
  %13 = load ptr, ptr %4, align 8, !tbaa !55
  %14 = load ptr, ptr %13, align 8, !tbaa !92
  %15 = getelementptr inbounds ptr, ptr %14, i64 10
  %16 = load ptr, ptr %15, align 8
  %17 = call noundef ptr %16(ptr noundef nonnull align 8 dereferenceable(88) %13)
  %18 = call noundef ptr @_ZNK2cv8tinyxml27XMLNode5ValueEv(ptr noundef nonnull align 8 dereferenceable(88) %17)
  %19 = call noundef ptr @_ZNK2cv8tinyxml27XMLNode5ValueEv(ptr noundef nonnull align 8 dereferenceable(88) %5)
  %20 = call noundef zeroext i1 @_ZN2cv8tinyxml27XMLUtil11StringEqualEPKcS3_i(ptr noundef %18, ptr noundef %19, i32 noundef 2147483647)
  br label %21

21:                                               ; preds = %12, %2
  %22 = phi i1 [ false, %2 ], [ %20, %12 ]
  ret i1 %22
}